target datalayout = "e-m:e-p270:32:32-p271:32:32-p272:64:64-i64:64-i128:128-f80:128-n8:16:32:64-S128"
target triple = "x86_64-pc-linux-gnu"

%struct.WOLFSSL = type <{ ptr, ptr, ptr, ptr, [48 x i8], [48 x i8], ptr, ptr, ptr, ptr, ptr, ptr, ptr, ptr, ptr, ptr, ptr, ptr, ptr, i32, [4 x i8], %struct.WOLFSSL_CIPHER, ptr, %struct.Ciphers, %struct.Ciphers, [8 x i8], %struct.Buffers, ptr, ptr, %struct.WOLFSSL_ALERT_HISTORY, %struct.WOLFSSL_ALERT, i32, i32, i32, i32, i32, i32, i32, i16, [2 x i8], i32, i8, %struct.RecordLayerHeader, %struct.MsgsReceived, %struct.ProtocolVersion, %struct.ProtocolVersion, %struct.CipherSpecs, [2 x i8], %struct.Keys, %struct.Options, ptr, i8, i8, i16, [10 x i16], i8, i8, i16, i16, [38 x i8], i32, i32, [4 x i8], ptr, i8, i8, [6 x i8], ptr, ptr, i16, i8, i8, i32, i8, [3 x i8], i32, %struct.OneTimeAuth, ptr }>
%struct.WOLFSSL_CIPHER = type { i8, i8, ptr }
%struct.Ciphers = type { ptr, ptr, ptr, ptr, i8, i8 }
%struct.Buffers = type { %struct.bufferStatic, %struct.bufferStatic, %struct.WOLFSSL_BUFFER_INFO, %struct.WOLFSSL_BUFFER_INFO, %struct.WOLFSSL_BUFFER_INFO, %struct.WOLFSSL_BUFFER_INFO, i32, i32, i8, i8, i8, i8, %struct.WOLFSSL_BUFFER_INFO, %struct.WOLFSSL_BUFFER_INFO, %struct.WOLFSSL_BUFFER_INFO, %struct.WOLFSSL_BUFFER_INFO, ptr, ptr, ptr, i8, i8, i32, i32, ptr, i32, [1 x ptr] }
%struct.bufferStatic = type { [5 x i8], ptr, i32, i32, i32, i8, i8 }
%struct.WOLFSSL_BUFFER_INFO = type { ptr, i32 }
%struct.WOLFSSL_ALERT_HISTORY = type { %struct.WOLFSSL_ALERT, %struct.WOLFSSL_ALERT }
%struct.WOLFSSL_ALERT = type { i32, i32 }
%struct.RecordLayerHeader = type { i8, i8, i8, [2 x i8] }
%struct.MsgsReceived = type { i32 }
%struct.ProtocolVersion = type { i8, i8 }
%struct.CipherSpecs = type { i16, i16, i16, i16, i8, i8, i8, i8, i8, i8, i8, i8 }
%struct.Keys = type { [64 x i8], [64 x i8], [32 x i8], [32 x i8], [16 x i8], [16 x i8], [8 x i8], [12 x i8], [12 x i8], i32, i32, i32, i32, i32, i32, i8, i8, i8, i8 }
%struct.Options = type { i64, i64, i8, i8, i8, i8, i8, i8, i8, i8, i8, i8, i8, i8, i8, i8, i8, i8, i8, i8, i8, i8, i8, i16, i16, i16, i16, i16, i8 }
%struct.OneTimeAuth = type { ptr, i8 }
%struct.wolfSSL_RefWithMutex = type { %union.pthread_mutex_t, i32 }
%union.pthread_mutex_t = type { %struct.__pthread_mutex_s }
%struct.__pthread_mutex_s = type { i32, i32, i32, i32, i32, i16, i16, %struct.__pthread_internal_list }
%struct.__pthread_internal_list = type { ptr, ptr }
%struct.WOLFSSL_SESSION = type { i32, i32, %struct.wolfSSL_RefWithMutex, [32 x i8], i8, ptr, i8, i32, i32, [32 x i8], i8, [48 x i8], i16, i8, i8, i16, [20 x i8], i16, i8 }

; Function Attrs: nounwind uwtable
define internal void @GetTls13SessionId(ptr noundef %0, ptr noundef %1, ptr noundef %2) #0 {
  %4 = alloca ptr, align 8
  %5 = alloca ptr, align 8
  %6 = alloca ptr, align 8
  store ptr %0, ptr %4, align 8, !tbaa !3
  store ptr %1, ptr %5, align 8, !tbaa !8
  store ptr %2, ptr %6, align 8, !tbaa !125
  %7 = load ptr, ptr %4, align 8, !tbaa !3
  %8 = getelementptr inbounds nuw %struct.WOLFSSL, ptr %7, i32 0, i32 27
  %9 = load ptr, ptr %8, align 16, !tbaa !127
  %10 = getelementptr inbounds nuw %struct.WOLFSSL_SESSION, ptr %9, i32 0, i32 10
  %11 = load i8, ptr %10, align 4, !tbaa !128
  %12 = zext i8 %11 to i32
  %13 = icmp sgt i32 %12, 0
  br i1 %13, label %14, label %87

14:                                               ; preds = %3
  %15 = load ptr, ptr %4, align 8, !tbaa !3
  %16 = getelementptr inbounds nuw %struct.WOLFSSL, ptr %15, i32 0, i32 27
  %17 = load ptr, ptr %16, align 16, !tbaa !127
  %18 = getelementptr inbounds nuw %struct.WOLFSSL_SESSION, ptr %17, i32 0, i32 10
  %19 = load i8, ptr %18, align 4, !tbaa !128
  %20 = zext i8 %19 to i32
  %21 = icmp sle i32 %20, 32
  br i1 %21, label %22, label %69

22:                                               ; preds = %14
  %23 = load ptr, ptr %5, align 8, !tbaa !8
  %24 = icmp ne ptr %23, null
  br i1 %24, label %25, label %36

25:                                               ; preds = %22
  %26 = load ptr, ptr %4, align 8, !tbaa !3
  %27 = getelementptr inbounds nuw %struct.WOLFSSL, ptr %26, i32 0, i32 27
  %28 = load ptr, ptr %27, align 16, !tbaa !127
  %29 = getelementptr inbounds nuw %struct.WOLFSSL_SESSION, ptr %28, i32 0, i32 10
  %30 = load i8, ptr %29, align 4, !tbaa !128
  %31 = load ptr, ptr %5, align 8, !tbaa !8
  %32 = load ptr, ptr %6, align 8, !tbaa !125
  %33 = load i32, ptr %32, align 4, !tbaa !10
  %34 = zext i32 %33 to i64
  %35 = getelementptr inbounds nuw i8, ptr %31, i64 %34
  store i8 %30, ptr %35, align 1, !tbaa !58
  br label %36

36:                                               ; preds = %25, %22
  %37 = load ptr, ptr %6, align 8, !tbaa !125
  %38 = load i32, ptr %37, align 4, !tbaa !10
  %39 = add i32 %38, 1
  store i32 %39, ptr %37, align 4, !tbaa !10
  %40 = load ptr, ptr %5, align 8, !tbaa !8
  %41 = icmp ne ptr %40, null
  br i1 %41, label %42, label %59

42:                                               ; preds = %36
  %43 = load ptr, ptr %5, align 8, !tbaa !8
  %44 = load ptr, ptr %6, align 8, !tbaa !125
  %45 = load i32, ptr %44, align 4, !tbaa !10
  %46 = zext i32 %45 to i64
  %47 = getelementptr inbounds nuw i8, ptr %43, i64 %46
  %48 = load ptr, ptr %4, align 8, !tbaa !3
  %49 = getelementptr inbounds nuw %struct.WOLFSSL, ptr %48, i32 0, i32 27
  %50 = load ptr, ptr %49, align 16, !tbaa !127
  %51 = getelementptr inbounds nuw %struct.WOLFSSL_SESSION, ptr %50, i32 0, i32 9
  %52 = getelementptr inbounds [32 x i8], ptr %51, i64 0, i64 0
  %53 = load ptr, ptr %4, align 8, !tbaa !3
  %54 = getelementptr inbounds nuw %struct.WOLFSSL, ptr %53, i32 0, i32 27
  %55 = load ptr, ptr %54, align 16, !tbaa !127
  %56 = getelementptr inbounds nuw %struct.WOLFSSL_SESSION, ptr %55, i32 0, i32 10
  %57 = load i8, ptr %56, align 4, !tbaa !128
  %58 = zext i8 %57 to i64
  call void @llvm.memcpy.p0.p0.i64(ptr align 1 %47, ptr align 4 %52, i64 %58, i1 false)
  br label %59

59:                                               ; preds = %42, %36
  %60 = load ptr, ptr %4, align 8, !tbaa !3
  %61 = getelementptr inbounds nuw %struct.WOLFSSL, ptr %60, i32 0, i32 27
  %62 = load ptr, ptr %61, align 16, !tbaa !127
  %63 = getelementptr inbounds nuw %struct.WOLFSSL_SESSION, ptr %62, i32 0, i32 10
  %64 = load i8, ptr %63, align 4, !tbaa !128
  %65 = zext i8 %64 to i32
  %66 = load ptr, ptr %6, align 8, !tbaa !125
  %67 = load i32, ptr %66, align 4, !tbaa !10
  %68 = add i32 %67, %65
  store i32 %68, ptr %66, align 4, !tbaa !10
  br label %86

69:                                               ; preds = %14
  %70 = load ptr, ptr %4, align 8, !tbaa !3
  %71 = getelementptr inbounds nuw %struct.WOLFSSL, ptr %70, i32 0, i32 27
  %72 = load ptr, ptr %71, align 16, !tbaa !127
  %73 = getelementptr inbounds nuw %struct.WOLFSSL_SESSION, ptr %72, i32 0, i32 10
  store i8 0, ptr %73, align 4, !tbaa !128
  %74 = load ptr, ptr %5, align 8, !tbaa !8
  %75 = icmp ne ptr %74, null
  br i1 %75, label %76, label %82

76:                                               ; preds = %69
  %77 = load ptr, ptr %5, align 8, !tbaa !8
  %78 = load ptr, ptr %6, align 8, !tbaa !125
  %79 = load i32, ptr %78, align 4, !tbaa !10
  %80 = zext i32 %79 to i64
  %81 = getelementptr inbounds nuw i8, ptr %77, i64 %80
  store i8 0, ptr %81, align 1, !tbaa !58
  br label %82

82:                                               ; preds = %76, %69
  %83 = load ptr, ptr %6, align 8, !tbaa !125
  %84 = load i32, ptr %83, align 4, !tbaa !10
  %85 = add i32 %84, 1
  store i32 %85, ptr %83, align 4, !tbaa !10
  br label %86

86:                                               ; preds = %82, %59
  br label %100

87:                                               ; preds = %3
  %88 = load ptr, ptr %5, align 8, !tbaa !8
  %89 = icmp ne ptr %88, null
  br i1 %89, label %90, label %96

90:                                               ; preds = %87
  %91 = load ptr, ptr %5, align 8, !tbaa !8
  %92 = load ptr, ptr %6, align 8, !tbaa !125
  %93 = load i32, ptr %92, align 4, !tbaa !10
  %94 = zext i32 %93 to i64
  %95 = getelementptr inbounds nuw i8, ptr %91, i64 %94
  store i8 0, ptr %95, align 1, !tbaa !58
  br label %96

96:                                               ; preds = %90, %87
  %97 = load ptr, ptr %6, align 8, !tbaa !125
  %98 = load i32, ptr %97, align 4, !tbaa !10
  %99 = add i32 %98, 1
  store i32 %99, ptr %97, align 4, !tbaa !10
  br label %100

100:                                              ; preds = %96, %86
  ret void
}