; Function Attrs: mustprogress nofree norecurse nosync nounwind willreturn memory(readwrite, inaccessiblemem: none) uwtable
define internal fastcc void @GetTls13SessionId(ptr noundef nonnull readonly captures(none) %0, ptr noundef writeonly captures(address_is_null) %1, ptr noundef nonnull captures(none) %2) unnamed_addr #7 {
  %4 = getelementptr inbounds nuw i8, ptr %0, i64 624
  %5 = load ptr, ptr %4, align 16, !tbaa !96
  %6 = getelementptr inbounds nuw i8, ptr %5, i64 148
  %7 = load i8, ptr %6, align 4, !tbaa !97
  %.not = icmp eq i8 %7, 0
  br i1 %.not, label %38, label %8

8:                                                ; preds = %3
  %9 = icmp ult i8 %7, 33
  br i1 %9, label %10, label %30

10:                                               ; preds = %8
  %.not26 = icmp eq ptr %1, null
  %11 = load i32, ptr %2, align 4, !tbaa !109
  br i1 %.not26, label %.thread, label %13

.thread:                                          ; preds = %10
  %12 = add i32 %11, 1
  br label %25

13:                                               ; preds = %10
  %14 = zext i32 %11 to i64
  %15 = getelementptr inbounds nuw i8, ptr %1, i64 %14
  store i8 %7, ptr %15, align 1, !tbaa !57
  %16 = load i32, ptr %2, align 4, !tbaa !109
  %17 = add i32 %16, 1
  store i32 %17, ptr %2, align 4, !tbaa !109
  %18 = zext i32 %17 to i64
  %19 = getelementptr inbounds nuw i8, ptr %1, i64 %18
  %20 = load ptr, ptr %4, align 16, !tbaa !96
  %21 = getelementptr inbounds nuw i8, ptr %20, i64 116
  %22 = getelementptr inbounds nuw i8, ptr %20, i64 148
  %23 = load i8, ptr %22, align 4, !tbaa !97
  %24 = zext i8 %23 to i64
  tail call void @llvm.memcpy.p0.p0.i64(ptr nonnull align 1 %19, ptr nonnull align 4 %21, i64 %24, i1 false)
  %.pre = load ptr, ptr %4, align 16, !tbaa !96
  %.phi.trans.insert = getelementptr inbounds nuw i8, ptr %.pre, i64 148
  %.pre27 = load i8, ptr %.phi.trans.insert, align 4, !tbaa !97
  %.pre28 = load i32, ptr %2, align 4, !tbaa !109
  br label %25

25:                                               ; preds = %.thread, %13
  %26 = phi i32 [ %12, %.thread ], [ %.pre28, %13 ]
  %27 = phi i8 [ %7, %.thread ], [ %.pre27, %13 ]
  %28 = zext i8 %27 to i32
  %29 = add i32 %26, %28
  br label %46

30:                                               ; preds = %8
  store i8 0, ptr %6, align 4, !tbaa !97
  %.not25 = icmp eq ptr %1, null
  br i1 %.not25, label %35, label %31

31:                                               ; preds = %30
  %32 = load i32, ptr %2, align 4, !tbaa !109
  %33 = zext i32 %32 to i64
  %34 = getelementptr inbounds nuw i8, ptr %1, i64 %33
  store i8 0, ptr %34, align 1, !tbaa !57
  br label %35

35:                                               ; preds = %31, %30
  %36 = load i32, ptr %2, align 4, !tbaa !109
  %37 = add i32 %36, 1
  br label %46

38:                                               ; preds = %3
  %.not24 = icmp eq ptr %1, null
  br i1 %.not24, label %43, label %39

39:                                               ; preds = %38
  %40 = load i32, ptr %2, align 4, !tbaa !109
  %41 = zext i32 %40 to i64
  %42 = getelementptr inbounds nuw i8, ptr %1, i64 %41
  store i8 0, ptr %42, align 1, !tbaa !57
  br label %43

43:                                               ; preds = %39, %38
  %44 = load i32, ptr %2, align 4, !tbaa !109
  %45 = add i32 %44, 1
  br label %46

46:                                               ; preds = %25, %35, %43
  %.sink = phi i32 [ %29, %25 ], [ %37, %35 ], [ %45, %43 ]
  store i32 %.sink, ptr %2, align 4, !tbaa !109
  ret void
}